target datalayout = "e-m:e-p270:32:32-p271:32:32-p272:64:64-i64:64-i128:128-f80:128-n8:16:32:64-S128"
target triple = "x86_64-pc-linux-gnu"

%struct._object = type { %union.anon, ptr }
%union.anon = type { i64 }
%struct.elementtreestate = type { ptr, ptr, ptr, ptr, ptr, ptr, ptr, ptr, ptr, ptr, ptr, ptr, ptr, ptr, ptr, ptr, ptr, ptr, ptr }
%struct.anon = type { i32, i32 }
%struct.XMLParserObject = type { %struct._object, ptr, ptr, ptr, ptr, ptr, ptr, ptr, ptr, ptr, ptr, ptr, ptr, ptr, ptr, ptr }

@.str.133 = private unnamed_addr constant [7 x i8] c"strict\00", align 1

; Function Attrs: alwaysinline nounwind uwtable
define internal i32 @_Py_IsImmortal(ptr noundef %0) #4 {
  %2 = alloca ptr, align 8
  store ptr %0, ptr %2, align 8, !tbaa !3
  %3 = load ptr, ptr %2, align 8, !tbaa !3
  %4 = getelementptr inbounds nuw %struct._object, ptr %3, i32 0, i32 0
  %5 = getelementptr inbounds nuw %struct.anon, ptr %4, i32 0, i32 0
  %6 = load i32, ptr %5, align 8, !tbaa !32
  %7 = icmp slt i32 %6, 0
  %8 = zext i1 %7 to i32
  ret i32 %8
}

; Function Attrs: inlinehint nounwind uwtable
define internal ptr @_Py_TYPE(ptr noundef %0) #3 {
  %2 = alloca ptr, align 8
  store ptr %0, ptr %2, align 8, !tbaa !3
  %3 = load ptr, ptr %2, align 8, !tbaa !3
  %4 = getelementptr inbounds nuw %struct._object, ptr %3, i32 0, i32 1
  %5 = load ptr, ptr %4, align 8, !tbaa !52
  ret ptr %5
}

; Function Attrs: inlinehint nounwind uwtable
define internal void @Py_XDECREF(ptr noundef %0) #3 {
  %2 = alloca ptr, align 8
  store ptr %0, ptr %2, align 8, !tbaa !3
  %3 = load ptr, ptr %2, align 8, !tbaa !3
  %4 = icmp ne ptr %3, null
  br i1 %4, label %5, label %7

5:                                                ; preds = %1
  %6 = load ptr, ptr %2, align 8, !tbaa !3
  call void @Py_DECREF(ptr noundef %6)
  br label %7

7:                                                ; preds = %5, %1
  ret void
}

; Function Attrs: alwaysinline nounwind uwtable
define internal void @Py_DECREF(ptr noundef %0) #4 {
  %2 = alloca ptr, align 8
  store ptr %0, ptr %2, align 8, !tbaa !3
  %3 = load ptr, ptr %2, align 8, !tbaa !3
  %4 = call i32 @_Py_IsImmortal(ptr noundef %3)
  %5 = icmp ne i32 %4, 0
  br i1 %5, label %6, label %7

6:                                                ; preds = %1
  br label %16

7:                                                ; preds = %1
  %8 = load ptr, ptr %2, align 8, !tbaa !3
  %9 = getelementptr inbounds nuw %struct._object, ptr %8, i32 0, i32 0
  %10 = getelementptr inbounds nuw %struct.anon, ptr %9, i32 0, i32 0
  %11 = load i32, ptr %10, align 8, !tbaa !32
  %12 = add i32 %11, -1
  store i32 %12, ptr %10, align 8, !tbaa !32
  %13 = icmp eq i32 %12, 0
  br i1 %13, label %14, label %16

14:                                               ; preds = %7
  %15 = load ptr, ptr %2, align 8, !tbaa !3
  call void @_Py_Dealloc(ptr noundef %15)
  br label %16

16:                                               ; preds = %6, %14, %7
  ret void
}

; Function Attrs: inlinehint nounwind uwtable
define internal i32 @Py_IS_TYPE(ptr noundef %0, ptr noundef %1) #3 {
  %3 = alloca ptr, align 8
  %4 = alloca ptr, align 8
  store ptr %0, ptr %3, align 8, !tbaa !3
  store ptr %1, ptr %4, align 8, !tbaa !28
  %5 = load ptr, ptr %3, align 8, !tbaa !3
  %6 = call ptr @_Py_TYPE(ptr noundef %5)
  %7 = load ptr, ptr %4, align 8, !tbaa !28
  %8 = icmp eq ptr %6, %7
  %9 = zext i1 %8 to i32
  ret i32 %9
}

; Function Attrs: nounwind uwtable
define internal void @expat_data_handler(ptr noundef %0, ptr noundef %1, i32 noundef %2) #0 {
  %4 = alloca ptr, align 8
  %5 = alloca ptr, align 8
  %6 = alloca i32, align 4
  %7 = alloca ptr, align 8
  %8 = alloca ptr, align 8
  %9 = alloca i32, align 4
  %10 = alloca ptr, align 8
  store ptr %0, ptr %4, align 8, !tbaa !8
  store ptr %1, ptr %5, align 8, !tbaa !139
  store i32 %2, ptr %6, align 4, !tbaa !13
  call void @llvm.lifetime.start.p0(i64 8, ptr %7) #8
  call void @llvm.lifetime.start.p0(i64 8, ptr %8) #8
  %11 = call ptr @PyErr_Occurred()
  %12 = icmp ne ptr %11, null
  br i1 %12, label %13, label %14

13:                                               ; preds = %3
  store i32 1, ptr %9, align 4
  br label %56

14:                                               ; preds = %3
  %15 = load ptr, ptr %5, align 8, !tbaa !139
  %16 = load i32, ptr %6, align 4, !tbaa !13
  %17 = sext i32 %16 to i64
  %18 = call ptr @PyUnicode_DecodeUTF8(ptr noundef %15, i64 noundef %17, ptr noundef @.str.133)
  store ptr %18, ptr %7, align 8, !tbaa !3
  %19 = load ptr, ptr %7, align 8, !tbaa !3
  %20 = icmp ne ptr %19, null
  br i1 %20, label %22, label %21

21:                                               ; preds = %14
  store i32 1, ptr %9, align 4
  br label %56

22:                                               ; preds = %14
  call void @llvm.lifetime.start.p0(i64 8, ptr %10) #8
  %23 = load ptr, ptr %4, align 8, !tbaa !8
  %24 = getelementptr inbounds nuw %struct.XMLParserObject, ptr %23, i32 0, i32 14
  %25 = load ptr, ptr %24, align 8, !tbaa !171
  store ptr %25, ptr %10, align 8, !tbaa !8
  %26 = load ptr, ptr %4, align 8, !tbaa !8
  %27 = getelementptr inbounds nuw %struct.XMLParserObject, ptr %26, i32 0, i32 2
  %28 = load ptr, ptr %27, align 8, !tbaa !168
  %29 = load ptr, ptr %10, align 8, !tbaa !8
  %30 = getelementptr inbounds nuw %struct.elementtreestate, ptr %29, i32 0, i32 15
  %31 = load ptr, ptr %30, align 8, !tbaa !21
  %32 = call i32 @Py_IS_TYPE(ptr noundef %28, ptr noundef %31)
  %33 = icmp ne i32 %32, 0
  br i1 %33, label %34, label %40

34:                                               ; preds = %22
  %35 = load ptr, ptr %4, align 8, !tbaa !8
  %36 = getelementptr inbounds nuw %struct.XMLParserObject, ptr %35, i32 0, i32 2
  %37 = load ptr, ptr %36, align 8, !tbaa !168
  %38 = load ptr, ptr %7, align 8, !tbaa !3
  %39 = call ptr @treebuilder_handle_data(ptr noundef %37, ptr noundef %38)
  store ptr %39, ptr %8, align 8, !tbaa !3
  br label %53

40:                                               ; preds = %22
  %41 = load ptr, ptr %4, align 8, !tbaa !8
  %42 = getelementptr inbounds nuw %struct.XMLParserObject, ptr %41, i32 0, i32 8
  %43 = load ptr, ptr %42, align 8, !tbaa !163
  %44 = icmp ne ptr %43, null
  br i1 %44, label %45, label %51

45:                                               ; preds = %40
  %46 = load ptr, ptr %4, align 8, !tbaa !8
  %47 = getelementptr inbounds nuw %struct.XMLParserObject, ptr %46, i32 0, i32 8
  %48 = load ptr, ptr %47, align 8, !tbaa !163
  %49 = load ptr, ptr %7, align 8, !tbaa !3
  %50 = call ptr @PyObject_CallOneArg(ptr noundef %48, ptr noundef %49)
  store ptr %50, ptr %8, align 8, !tbaa !3
  br label %52

51:                                               ; preds = %40
  store ptr null, ptr %8, align 8, !tbaa !3
  br label %52

52:                                               ; preds = %51, %45
  br label %53

53:                                               ; preds = %52, %34
  %54 = load ptr, ptr %7, align 8, !tbaa !3
  call void @Py_DECREF(ptr noundef %54)
  %55 = load ptr, ptr %8, align 8, !tbaa !3
  call void @Py_XDECREF(ptr noundef %55)
  call void @llvm.lifetime.end.p0(i64 8, ptr %10) #8
  store i32 0, ptr %9, align 4
  br label %56

56:                                               ; preds = %53, %21, %13
  call void @llvm.lifetime.end.p0(i64 8, ptr %8) #8
  call void @llvm.lifetime.end.p0(i64 8, ptr %7) #8
  %57 = load i32, ptr %9, align 4
  switch i32 %57, label %59 [
    i32 0, label %58
    i32 1, label %58
  ]

58:                                               ; preds = %56, %56
  ret void

59:                                               ; preds = %56
  unreachable
}