; Function Attrs: nounwind uwtable
define internal void @expat_data_handler(ptr noundef readonly captures(none) %0, ptr noundef %1, i32 noundef %2) #0 {
  %4 = tail call ptr @PyErr_Occurred() #12
  %.not = icmp eq ptr %4, null
  br i1 %.not, label %5, label %Py_XDECREF.exit

5:                                                ; preds = %3
  %6 = sext i32 %2 to i64
  %7 = tail call ptr @PyUnicode_DecodeUTF8(ptr noundef %1, i64 noundef %6, ptr noundef nonnull @.str.133) #12
  %.not14 = icmp eq ptr %7, null
  br i1 %.not14, label %Py_XDECREF.exit, label %8

8:                                                ; preds = %5
  %9 = getelementptr inbounds nuw i8, ptr %0, i64 120
  %10 = load ptr, ptr %9, align 8, !tbaa !166
  %11 = getelementptr inbounds nuw i8, ptr %0, i64 24
  %12 = load ptr, ptr %11, align 8, !tbaa !162
  %13 = getelementptr inbounds nuw i8, ptr %10, i64 120
  %14 = load ptr, ptr %13, align 8, !tbaa !17
  %15 = getelementptr i8, ptr %12, i64 8
  %.val = load ptr, ptr %15, align 8, !tbaa !25
  %.not18 = icmp eq ptr %.val, %14
  br i1 %.not18, label %16, label %18

16:                                               ; preds = %8
  %17 = tail call fastcc ptr @treebuilder_handle_data(ptr noundef nonnull %12, ptr noundef nonnull %7)
  br label %23

18:                                               ; preds = %8
  %19 = getelementptr inbounds nuw i8, ptr %0, i64 72
  %20 = load ptr, ptr %19, align 8, !tbaa !157
  %.not16 = icmp eq ptr %20, null
  br i1 %.not16, label %23, label %21

21:                                               ; preds = %18
  %22 = tail call ptr @PyObject_CallOneArg(ptr noundef nonnull %20, ptr noundef nonnull %7) #12
  br label %23

23:                                               ; preds = %18, %21, %16
  %.0 = phi ptr [ %17, %16 ], [ %22, %21 ], [ null, %18 ]
  %24 = load i32, ptr %7, align 8, !tbaa !21
  %.not.i = icmp sgt i32 %24, -1
  br i1 %.not.i, label %25, label %Py_DECREF.exit

25:                                               ; preds = %23
  %26 = add nsw i32 %24, -1
  store i32 %26, ptr %7, align 8, !tbaa !21
  %27 = icmp eq i32 %26, 0
  br i1 %27, label %28, label %Py_DECREF.exit

28:                                               ; preds = %25
  tail call void @_Py_Dealloc(ptr noundef nonnull %7) #12
  br label %Py_DECREF.exit

Py_DECREF.exit:                                   ; preds = %23, %25, %28
  %.not.i17 = icmp eq ptr %.0, null
  br i1 %.not.i17, label %Py_XDECREF.exit, label %29

29:                                               ; preds = %Py_DECREF.exit
  %30 = load i32, ptr %.0, align 8, !tbaa !21
  %.not.i.i = icmp sgt i32 %30, -1
  br i1 %.not.i.i, label %31, label %Py_XDECREF.exit

31:                                               ; preds = %29
  %32 = add nsw i32 %30, -1
  store i32 %32, ptr %.0, align 8, !tbaa !21
  %33 = icmp eq i32 %32, 0
  br i1 %33, label %34, label %Py_XDECREF.exit

34:                                               ; preds = %31
  tail call void @_Py_Dealloc(ptr noundef nonnull %.0) #12
  br label %Py_XDECREF.exit

Py_XDECREF.exit:                                  ; preds = %34, %31, %29, %Py_DECREF.exit, %5, %3
  ret void
}